; Function Attrs: mustprogress uwtable
define void @_ZN9grpc_core33StatefulSessionMethodParsedConfig12CookieConfig12JsonPostLoadERKNS_12experimental4JsonERKNS_8JsonArgsEPNS_16ValidationErrorsE(ptr noundef nonnull readonly align 8 captures(none) dereferenceable(80) %0, ptr noundef nonnull readnone align 8 captures(none) dereferenceable(56) %1, ptr noundef nonnull readnone align 8 captures(none) dereferenceable(8) %2, ptr noundef %3) local_unnamed_addr #3 align 2 personality ptr @__gxx_personality_v0 {
  %5 = alloca %"class.grpc_core::ValidationErrors::ScopedField", align 8
  %6 = getelementptr inbounds nuw i8, ptr %0, i64 32
  %7 = load i8, ptr %6, align 8, !tbaa !12, !range !15, !noundef !16
  %8 = trunc nuw i8 %7 to i1
  %9 = getelementptr inbounds nuw i8, ptr %0, i64 8
  %10 = load i64, ptr %9, align 8
  %11 = icmp eq i64 %10, 0
  %or.cond = select i1 %8, i1 %11, i1 false
  br i1 %or.cond, label %12, label %19

12:                                               ; preds = %4
  call void @llvm.lifetime.start.p0(i64 8, ptr nonnull %5) #20
  store ptr %3, ptr %5, align 8, !tbaa !17
  tail call void @_ZN9grpc_core16ValidationErrors9PushFieldESt17basic_string_viewIcSt11char_traitsIcEE(ptr noundef nonnull align 8 dereferenceable(80) %3, i64 5, ptr nonnull @.str.3)
  invoke void @_ZN9grpc_core16ValidationErrors8AddErrorESt17basic_string_viewIcSt11char_traitsIcEE(ptr noundef nonnull align 8 dereferenceable(80) %3, i64 17, ptr nonnull @.str.4)
          to label %13 unwind label %17

13:                                               ; preds = %12
  invoke void @_ZN9grpc_core16ValidationErrors8PopFieldEv(ptr noundef nonnull align 8 dereferenceable(80) %3)
          to label %_ZN9grpc_core16ValidationErrors11ScopedFieldD2Ev.exit unwind label %14

14:                                               ; preds = %13
  %15 = landingpad { ptr, i32 }
          catch ptr null
  %16 = extractvalue { ptr, i32 } %15, 0
  tail call void @__clang_call_terminate(ptr %16) #22
  unreachable

_ZN9grpc_core16ValidationErrors11ScopedFieldD2Ev.exit: ; preds = %13
  call void @llvm.lifetime.end.p0(i64 8, ptr nonnull %5) #20
  br label %19

17:                                               ; preds = %12
  %18 = landingpad { ptr, i32 }
          cleanup
  call void @_ZN9grpc_core16ValidationErrors11ScopedFieldD2Ev(ptr noundef nonnull align 8 dereferenceable(8) %5) #20
  call void @llvm.lifetime.end.p0(i64 8, ptr nonnull %5) #20
  resume { ptr, i32 } %18

19:                                               ; preds = %_ZN9grpc_core16ValidationErrors11ScopedFieldD2Ev.exit, %4
  ret void
}